target datalayout = "e-m:e-p270:32:32-p271:32:32-p272:64:64-i64:64-i128:128-f80:128-n8:16:32:64-S128"
target triple = "x86_64-pc-linux-gnu"

%struct.AVBSFContext = type { ptr, ptr, ptr, ptr, ptr, %struct.AVRational, %struct.AVRational }
%struct.AVRational = type { i32, i32 }
%struct.ExtractExtradataContext = type { ptr, ptr, %struct.AV1Packet, %struct.H2645Packet, i32 }
%struct.AV1Packet = type { ptr, i32, i32, i32 }
%struct.H2645Packet = type { ptr, %struct.H2645RBSP, i32, i32, i32 }
%struct.H2645RBSP = type { ptr, ptr, i32, i32 }
%struct.AVPacket = type { ptr, i64, i64, ptr, i32, i32, i32, ptr, i32, i64, i64, ptr, ptr, %struct.AVRational }

; Function Attrs: nounwind uwtable
define internal i32 @extract_extradata_vc1(ptr noundef %0, ptr noundef %1, ptr noundef %2, ptr noundef %3) #0 {
  %5 = alloca i32, align 4
  %6 = alloca ptr, align 8
  %7 = alloca ptr, align 8
  %8 = alloca ptr, align 8
  %9 = alloca ptr, align 8
  %10 = alloca ptr, align 8
  %11 = alloca ptr, align 8
  %12 = alloca ptr, align 8
  %13 = alloca i32, align 4
  %14 = alloca i32, align 4
  %15 = alloca i32, align 4
  %16 = alloca i32, align 4
  store ptr %0, ptr %6, align 8, !tbaa !4
  store ptr %1, ptr %7, align 8, !tbaa !39
  store ptr %2, ptr %8, align 8, !tbaa !42
  store ptr %3, ptr %9, align 8, !tbaa !45
  call void @llvm.lifetime.start.p0(i64 8, ptr %10) #9
  %17 = load ptr, ptr %6, align 8, !tbaa !4
  %18 = getelementptr inbounds nuw %struct.AVBSFContext, ptr %17, i32 0, i32 2
  %19 = load ptr, ptr %18, align 8, !tbaa !9
  store ptr %19, ptr %10, align 8, !tbaa !16
  call void @llvm.lifetime.start.p0(i64 8, ptr %11) #9
  %20 = load ptr, ptr %7, align 8, !tbaa !39
  %21 = getelementptr inbounds nuw %struct.AVPacket, ptr %20, i32 0, i32 3
  %22 = load ptr, ptr %21, align 8, !tbaa !47
  store ptr %22, ptr %11, align 8, !tbaa !41
  call void @llvm.lifetime.start.p0(i64 8, ptr %12) #9
  %23 = load ptr, ptr %7, align 8, !tbaa !39
  %24 = getelementptr inbounds nuw %struct.AVPacket, ptr %23, i32 0, i32 3
  %25 = load ptr, ptr %24, align 8, !tbaa !47
  %26 = load ptr, ptr %7, align 8, !tbaa !39
  %27 = getelementptr inbounds nuw %struct.AVPacket, ptr %26, i32 0, i32 4
  %28 = load i32, ptr %27, align 8, !tbaa !49
  %29 = sext i32 %28 to i64
  %30 = getelementptr inbounds i8, ptr %25, i64 %29
  store ptr %30, ptr %12, align 8, !tbaa !41
  call void @llvm.lifetime.start.p0(i64 4, ptr %13) #9
  store i32 -1, ptr %13, align 4, !tbaa !18
  call void @llvm.lifetime.start.p0(i64 4, ptr %14) #9
  store i32 0, ptr %14, align 4, !tbaa !18
  call void @llvm.lifetime.start.p0(i64 4, ptr %15) #9
  store i32 0, ptr %15, align 4, !tbaa !18
  br label %31

31:                                               ; preds = %63, %4
  %32 = load ptr, ptr %11, align 8, !tbaa !41
  %33 = load ptr, ptr %12, align 8, !tbaa !41
  %34 = icmp ult ptr %32, %33
  br i1 %34, label %35, label %64

35:                                               ; preds = %31
  %36 = load ptr, ptr %11, align 8, !tbaa !41
  %37 = load ptr, ptr %12, align 8, !tbaa !41
  %38 = call ptr @avpriv_find_start_code(ptr noundef %36, ptr noundef %37, ptr noundef %13)
  store ptr %38, ptr %11, align 8, !tbaa !41
  %39 = load i32, ptr %13, align 4, !tbaa !18
  %40 = icmp eq i32 %39, 271
  br i1 %40, label %44, label %41

41:                                               ; preds = %35
  %42 = load i32, ptr %13, align 4, !tbaa !18
  %43 = icmp eq i32 %42, 270
  br i1 %43, label %44, label %45

44:                                               ; preds = %41, %35
  store i32 1, ptr %14, align 4, !tbaa !18
  br label %63

45:                                               ; preds = %41
  %46 = load i32, ptr %14, align 4, !tbaa !18
  %47 = icmp ne i32 %46, 0
  br i1 %47, label %48, label %62

48:                                               ; preds = %45
  %49 = load i32, ptr %13, align 4, !tbaa !18
  %50 = and i32 %49, -256
  %51 = icmp eq i32 %50, 256
  br i1 %51, label %52, label %62

52:                                               ; preds = %48
  %53 = load ptr, ptr %11, align 8, !tbaa !41
  %54 = getelementptr inbounds i8, ptr %53, i64 -4
  %55 = load ptr, ptr %7, align 8, !tbaa !39
  %56 = getelementptr inbounds nuw %struct.AVPacket, ptr %55, i32 0, i32 3
  %57 = load ptr, ptr %56, align 8, !tbaa !47
  %58 = ptrtoint ptr %54 to i64
  %59 = ptrtoint ptr %57 to i64
  %60 = sub i64 %58, %59
  %61 = trunc i64 %60 to i32
  store i32 %61, ptr %15, align 4, !tbaa !18
  br label %64

62:                                               ; preds = %48, %45
  br label %63

63:                                               ; preds = %62, %44
  br label %31, !llvm.loop !79

64:                                               ; preds = %52, %31
  %65 = load i32, ptr %15, align 4, !tbaa !18
  %66 = icmp ne i32 %65, 0
  br i1 %66, label %67, label %104

67:                                               ; preds = %64
  %68 = load i32, ptr %15, align 4, !tbaa !18
  %69 = add nsw i32 %68, 64
  %70 = sext i32 %69 to i64
  %71 = call noalias ptr @av_malloc(i64 noundef %70)
  %72 = load ptr, ptr %8, align 8, !tbaa !42
  store ptr %71, ptr %72, align 8, !tbaa !41
  %73 = load ptr, ptr %8, align 8, !tbaa !42
  %74 = load ptr, ptr %73, align 8, !tbaa !41
  %75 = icmp ne ptr %74, null
  br i1 %75, label %77, label %76

76:                                               ; preds = %67
  store i32 -12, ptr %5, align 4
  store i32 1, ptr %16, align 4
  br label %105

77:                                               ; preds = %67
  %78 = load ptr, ptr %8, align 8, !tbaa !42
  %79 = load ptr, ptr %78, align 8, !tbaa !41
  %80 = load ptr, ptr %7, align 8, !tbaa !39
  %81 = getelementptr inbounds nuw %struct.AVPacket, ptr %80, i32 0, i32 3
  %82 = load ptr, ptr %81, align 8, !tbaa !47
  %83 = load i32, ptr %15, align 4, !tbaa !18
  %84 = sext i32 %83 to i64
  call void @llvm.memcpy.p0.p0.i64(ptr align 1 %79, ptr align 1 %82, i64 %84, i1 false)
  %85 = load i32, ptr %15, align 4, !tbaa !18
  %86 = load ptr, ptr %9, align 8, !tbaa !45
  store i32 %85, ptr %86, align 4, !tbaa !18
  %87 = load ptr, ptr %10, align 8, !tbaa !16
  %88 = getelementptr inbounds nuw %struct.ExtractExtradataContext, ptr %87, i32 0, i32 4
  %89 = load i32, ptr %88, align 8, !tbaa !56
  %90 = icmp ne i32 %89, 0
  br i1 %90, label %91, label %103

91:                                               ; preds = %77
  %92 = load i32, ptr %15, align 4, !tbaa !18
  %93 = load ptr, ptr %7, align 8, !tbaa !39
  %94 = getelementptr inbounds nuw %struct.AVPacket, ptr %93, i32 0, i32 3
  %95 = load ptr, ptr %94, align 8, !tbaa !47
  %96 = sext i32 %92 to i64
  %97 = getelementptr inbounds i8, ptr %95, i64 %96
  store ptr %97, ptr %94, align 8, !tbaa !47
  %98 = load i32, ptr %15, align 4, !tbaa !18
  %99 = load ptr, ptr %7, align 8, !tbaa !39
  %100 = getelementptr inbounds nuw %struct.AVPacket, ptr %99, i32 0, i32 4
  %101 = load i32, ptr %100, align 8, !tbaa !49
  %102 = sub nsw i32 %101, %98
  store i32 %102, ptr %100, align 8, !tbaa !49
  br label %103

103:                                              ; preds = %91, %77
  br label %104

104:                                              ; preds = %103, %64
  store i32 0, ptr %5, align 4
  store i32 1, ptr %16, align 4
  br label %105

105:                                              ; preds = %104, %76
  call void @llvm.lifetime.end.p0(i64 4, ptr %15) #9
  call void @llvm.lifetime.end.p0(i64 4, ptr %14) #9
  call void @llvm.lifetime.end.p0(i64 4, ptr %13) #9
  call void @llvm.lifetime.end.p0(i64 8, ptr %12) #9
  call void @llvm.lifetime.end.p0(i64 8, ptr %11) #9
  call void @llvm.lifetime.end.p0(i64 8, ptr %10) #9
  %106 = load i32, ptr %5, align 4
  ret i32 %106
}