; Function Attrs: nounwind uwtable
define internal range(i32 -12, 1) i32 @extract_extradata_vc1(ptr noundef readonly captures(none) %0, ptr noundef captures(none) %1, ptr noundef writeonly captures(none) %2, ptr noundef writeonly captures(none) %3) #1 {
  %5 = alloca i32, align 4
  %6 = getelementptr inbounds nuw i8, ptr %0, i64 16
  %7 = load ptr, ptr %6, align 8, !tbaa !4
  %8 = getelementptr inbounds nuw i8, ptr %1, i64 24
  %9 = load ptr, ptr %8, align 8, !tbaa !36
  %10 = getelementptr inbounds nuw i8, ptr %1, i64 32
  %11 = load i32, ptr %10, align 8, !tbaa !38
  %12 = sext i32 %11 to i64
  %13 = getelementptr inbounds i8, ptr %9, i64 %12
  call void @llvm.lifetime.start.p0(i64 4, ptr nonnull %5) #8
  store i32 -1, ptr %5, align 4, !tbaa !35
  %14 = icmp sgt i32 %11, 0
  br i1 %14, label %.lr.ph, label %.thread

.lr.ph:                                           ; preds = %4, %22
  %.02639 = phi i32 [ %.1, %22 ], [ 0, %4 ]
  %.02838 = phi ptr [ %15, %22 ], [ %9, %4 ]
  %15 = call ptr @avpriv_find_start_code(ptr noundef %.02838, ptr noundef nonnull %13, ptr noundef nonnull %5) #8
  %16 = load i32, ptr %5, align 4, !tbaa !35
  %17 = and i32 %16, -2
  %or.cond = icmp eq i32 %17, 270
  br i1 %or.cond, label %22, label %18

18:                                               ; preds = %.lr.ph
  %.not = icmp eq i32 %.02639, 0
  br i1 %.not, label %22, label %19

19:                                               ; preds = %18
  %20 = and i32 %16, -256
  %21 = icmp eq i32 %20, 256
  br i1 %21, label %24, label %22

22:                                               ; preds = %.lr.ph, %18, %19
  %.1 = phi i32 [ 1, %19 ], [ 0, %18 ], [ 1, %.lr.ph ]
  %23 = icmp ult ptr %15, %13
  br i1 %23, label %.lr.ph, label %.thread, !llvm.loop !69

24:                                               ; preds = %19
  %25 = getelementptr inbounds i8, ptr %15, i64 -4
  %26 = load ptr, ptr %8, align 8, !tbaa !36
  %27 = ptrtoint ptr %25 to i64
  %28 = ptrtoint ptr %26 to i64
  %29 = sub i64 %27, %28
  %30 = trunc i64 %29 to i32
  %.not32 = icmp eq i32 %30, 0
  br i1 %.not32, label %.thread, label %31

31:                                               ; preds = %24
  %32 = shl i64 %29, 32
  %sext = add i64 %32, 274877906944
  %33 = ashr exact i64 %sext, 32
  %34 = call noalias ptr @av_malloc(i64 noundef %33) #8
  store ptr %34, ptr %2, align 8, !tbaa !34
  %.not33 = icmp eq ptr %34, null
  br i1 %.not33, label %.thread, label %35

35:                                               ; preds = %31
  %36 = load ptr, ptr %8, align 8, !tbaa !36
  %37 = ashr exact i64 %32, 32
  call void @llvm.memcpy.p0.p0.i64(ptr nonnull align 1 %34, ptr align 1 %36, i64 %37, i1 false)
  store i32 %30, ptr %3, align 4, !tbaa !35
  %38 = getelementptr inbounds nuw i8, ptr %7, i64 88
  %39 = load i32, ptr %38, align 8, !tbaa !49
  %.not34 = icmp eq i32 %39, 0
  br i1 %.not34, label %.thread, label %40

40:                                               ; preds = %35
  %41 = getelementptr inbounds i8, ptr %36, i64 %37
  store ptr %41, ptr %8, align 8, !tbaa !36
  %42 = load i32, ptr %10, align 8, !tbaa !38
  %43 = sub nsw i32 %42, %30
  store i32 %43, ptr %10, align 8, !tbaa !38
  br label %.thread

.thread:                                          ; preds = %22, %4, %24, %40, %35, %31
  %.027 = phi i32 [ -12, %31 ], [ 0, %35 ], [ 0, %40 ], [ 0, %24 ], [ 0, %4 ], [ 0, %22 ]
  call void @llvm.lifetime.end.p0(i64 4, ptr nonnull %5) #8
  ret i32 %.027
}